target datalayout = "e-m:e-p270:32:32-p271:32:32-p272:64:64-i64:64-i128:128-f80:128-n8:16:32:64-S128"
target triple = "x86_64-pc-linux-gnu"

; Function Attrs: nounwind uwtable
define hidden i32 @map2jdwpThreadStatus(i32 noundef %0) #0 {
  %2 = alloca i32, align 4
  %3 = alloca i32, align 4
  store i32 %0, ptr %2, align 4
  store i32 -1, ptr %3, align 4
  %4 = load i32, ptr %2, align 4
  %5 = and i32 %4, 1
  %6 = icmp ne i32 %5, 0
  br i1 %6, label %14, label %7

7:                                                ; preds = %1
  %8 = load i32, ptr %2, align 4
  %9 = and i32 %8, 2
  %10 = icmp ne i32 %9, 0
  br i1 %10, label %11, label %12

11:                                               ; preds = %7
  store i32 0, ptr %3, align 4
  br label %13

12:                                               ; preds = %7
  store i32 -1, ptr %3, align 4
  br label %13

13:                                               ; preds = %12, %11
  br label %38

14:                                               ; preds = %1
  %15 = load i32, ptr %2, align 4
  %16 = and i32 %15, 64
  %17 = icmp ne i32 %16, 0
  br i1 %17, label %18, label %19

18:                                               ; preds = %14
  store i32 2, ptr %3, align 4
  br label %37

19:                                               ; preds = %14
  %20 = load i32, ptr %2, align 4
  %21 = and i32 %20, 1024
  %22 = icmp ne i32 %21, 0
  br i1 %22, label %23, label %24

23:                                               ; preds = %19
  store i32 3, ptr %3, align 4
  br label %36

24:                                               ; preds = %19
  %25 = load i32, ptr %2, align 4
  %26 = and i32 %25, 128
  %27 = icmp ne i32 %26, 0
  br i1 %27, label %28, label %29

28:                                               ; preds = %24
  store i32 4, ptr %3, align 4
  br label %35

29:                                               ; preds = %24
  %30 = load i32, ptr %2, align 4
  %31 = and i32 %30, 4
  %32 = icmp ne i32 %31, 0
  br i1 %32, label %33, label %34

33:                                               ; preds = %29
  store i32 1, ptr %3, align 4
  br label %34

34:                                               ; preds = %33, %29
  br label %35

35:                                               ; preds = %34, %28
  br label %36

36:                                               ; preds = %35, %23
  br label %37

37:                                               ; preds = %36, %18
  br label %38

38:                                               ; preds = %37, %13
  %39 = load i32, ptr %3, align 4
  ret i32 %39
}