; Function Attrs: mustprogress nofree norecurse nosync nounwind willreturn memory(none) uwtable
define hidden range(i32 -1, 5) i32 @map2jdwpThreadStatus(i32 noundef %0) local_unnamed_addr #2 {
  %2 = and i32 %0, 1
  %.not = icmp eq i32 %2, 0
  br i1 %.not, label %3, label %6

3:                                                ; preds = %1
  %4 = lshr exact i32 %0, 1
  %5 = and i32 %4, 1
  %sext = add nsw i32 %5, -1
  br label %14

6:                                                ; preds = %1
  %7 = and i32 %0, 64
  %.not8 = icmp eq i32 %7, 0
  br i1 %.not8, label %8, label %14

8:                                                ; preds = %6
  %9 = and i32 %0, 1024
  %.not9 = icmp eq i32 %9, 0
  br i1 %.not9, label %10, label %14

10:                                               ; preds = %8
  %11 = and i32 %0, 128
  %.not10 = icmp eq i32 %11, 0
  br i1 %.not10, label %12, label %14

12:                                               ; preds = %10
  %13 = and i32 %0, 4
  %.not11 = icmp eq i32 %13, 0
  %spec.select = select i1 %.not11, i32 -1, i32 1
  br label %14

14:                                               ; preds = %12, %10, %8, %6, %3
  %.0 = phi i32 [ %sext, %3 ], [ 2, %6 ], [ 3, %8 ], [ 4, %10 ], [ %spec.select, %12 ]
  ret i32 %.0
}